target datalayout = "e-m:e-p270:32:32-p271:32:32-p272:64:64-i64:64-i128:128-f80:128-n8:16:32:64-S128"
target triple = "x86_64-pc-linux-gnu"

@.str.264 = private unnamed_addr constant [81 x i8] c"Illegal NetBIOS name (1st character not between A and Z in first-level encoding)\00", align 1
@.str.265 = private unnamed_addr constant [43 x i8] c"Illegal NetBIOS name (odd number of bytes)\00", align 1
@.str.266 = private unnamed_addr constant [81 x i8] c"Illegal NetBIOS name (2nd character not between A and Z in first-level encoding)\00", align 1
@.str.267 = private unnamed_addr constant [38 x i8] c"Illegal NetBIOS name (%lu bytes long)\00", align 1
@.str.268 = private unnamed_addr constant [7 x i8] c"<%02x>\00", align 1
@.str.269 = private unnamed_addr constant [3 x i8] c"%s\00", align 1

; Function Attrs: null_pointer_is_valid sspstrong uwtable
define internal i32 @get_nbns_name(ptr noundef %0, i32 noundef %1, i32 noundef %2, ptr noundef %3, i32 noundef %4, ptr noundef %5) #0 {
  %7 = alloca i32, align 4
  %8 = alloca ptr, align 8
  %9 = alloca i32, align 4
  %10 = alloca i32, align 4
  %11 = alloca ptr, align 8
  %12 = alloca i32, align 4
  %13 = alloca ptr, align 8
  %14 = alloca i32, align 4
  %15 = alloca ptr, align 8
  %16 = alloca ptr, align 8
  %17 = alloca ptr, align 8
  %18 = alloca ptr, align 8
  %19 = alloca i8, align 1
  %20 = alloca i8, align 1
  %21 = alloca i32, align 4
  %22 = alloca ptr, align 8
  %23 = alloca i64, align 8
  %24 = alloca i32, align 4
  %25 = alloca ptr, align 8
  %26 = alloca i32, align 4
  %27 = alloca i32, align 4
  store ptr %0, ptr %8, align 8
  store i32 %1, ptr %9, align 4
  store i32 %2, ptr %10, align 4
  store ptr %3, ptr %11, align 8
  store i32 %4, ptr %12, align 4
  store ptr %5, ptr %13, align 8
  call void @llvm.lifetime.start.p0(i64 4, ptr %14) #8
  call void @llvm.lifetime.start.p0(i64 8, ptr %15) #8
  call void @llvm.lifetime.start.p0(i64 8, ptr %16) #8
  call void @llvm.lifetime.start.p0(i64 8, ptr %17) #8
  call void @llvm.lifetime.start.p0(i64 8, ptr %18) #8
  call void @llvm.lifetime.start.p0(i64 1, ptr %19) #8
  call void @llvm.lifetime.start.p0(i64 1, ptr %20) #8
  call void @llvm.lifetime.start.p0(i64 4, ptr %21) #8
  call void @llvm.lifetime.start.p0(i64 8, ptr %22) #8
  call void @llvm.lifetime.start.p0(i64 8, ptr %23) #8
  store i64 0, ptr %23, align 8
  call void @llvm.lifetime.start.p0(i64 4, ptr %24) #8
  %28 = call ptr @wmem_packet_scope()
  %29 = call noalias ptr @wmem_alloc(ptr noundef %28, i64 noundef 128) #9
  store ptr %29, ptr %17, align 8
  %30 = load ptr, ptr %17, align 8
  store ptr %30, ptr %16, align 8
  %31 = load ptr, ptr %8, align 8
  %32 = load i32, ptr %9, align 4
  %33 = load i32, ptr %10, align 4
  %34 = call i32 @get_dns_name(ptr noundef %31, i32 noundef %32, i32 noundef 0, i32 noundef %33, ptr noundef %15, ptr noundef %14)
  store i32 %34, ptr %24, align 4
  %35 = load ptr, ptr %15, align 8
  %36 = getelementptr i8, ptr %35, i64 0
  store ptr %36, ptr %18, align 8
  %37 = load ptr, ptr %11, align 8
  store ptr %37, ptr %22, align 8
  br label %38

38:                                               ; preds = %110, %6
  %39 = load ptr, ptr %18, align 8
  %40 = load i8, ptr %39, align 1
  store i8 %40, ptr %19, align 1
  %41 = load i8, ptr %19, align 1
  %42 = sext i8 %41 to i32
  %43 = icmp eq i32 %42, 0
  br i1 %43, label %44, label %45

44:                                               ; preds = %38
  br label %111

45:                                               ; preds = %38
  %46 = load i8, ptr %19, align 1
  %47 = sext i8 %46 to i32
  %48 = icmp eq i32 %47, 46
  br i1 %48, label %49, label %50

49:                                               ; preds = %45
  br label %111

50:                                               ; preds = %45
  %51 = load i8, ptr %19, align 1
  %52 = sext i8 %51 to i32
  %53 = icmp slt i32 %52, 65
  br i1 %53, label %58, label %54

54:                                               ; preds = %50
  %55 = load i8, ptr %19, align 1
  %56 = sext i8 %55 to i32
  %57 = icmp sgt i32 %56, 90
  br i1 %57, label %58, label %59

58:                                               ; preds = %54, %50
  store ptr @.str.264, ptr %16, align 8
  br label %187

59:                                               ; preds = %54
  %60 = load i8, ptr %19, align 1
  %61 = sext i8 %60 to i32
  %62 = sub i32 %61, 65
  %63 = trunc i32 %62 to i8
  store i8 %63, ptr %19, align 1
  %64 = load i8, ptr %19, align 1
  %65 = sext i8 %64 to i32
  %66 = shl i32 %65, 4
  %67 = trunc i32 %66 to i8
  store i8 %67, ptr %20, align 1
  %68 = load ptr, ptr %18, align 8
  %69 = getelementptr i8, ptr %68, i32 1
  store ptr %69, ptr %18, align 8
  %70 = load ptr, ptr %18, align 8
  %71 = load i8, ptr %70, align 1
  store i8 %71, ptr %19, align 1
  %72 = load i8, ptr %19, align 1
  %73 = sext i8 %72 to i32
  %74 = icmp eq i32 %73, 0
  br i1 %74, label %79, label %75

75:                                               ; preds = %59
  %76 = load i8, ptr %19, align 1
  %77 = sext i8 %76 to i32
  %78 = icmp eq i32 %77, 46
  br i1 %78, label %79, label %80

79:                                               ; preds = %75, %59
  store ptr @.str.265, ptr %16, align 8
  br label %187

80:                                               ; preds = %75
  %81 = load i8, ptr %19, align 1
  %82 = sext i8 %81 to i32
  %83 = icmp slt i32 %82, 65
  br i1 %83, label %88, label %84

84:                                               ; preds = %80
  %85 = load i8, ptr %19, align 1
  %86 = sext i8 %85 to i32
  %87 = icmp sgt i32 %86, 90
  br i1 %87, label %88, label %89

88:                                               ; preds = %84, %80
  store ptr @.str.266, ptr %16, align 8
  br label %187

89:                                               ; preds = %84
  %90 = load i8, ptr %19, align 1
  %91 = sext i8 %90 to i32
  %92 = sub i32 %91, 65
  %93 = trunc i32 %92 to i8
  store i8 %93, ptr %19, align 1
  %94 = load i8, ptr %19, align 1
  %95 = sext i8 %94 to i32
  %96 = load i8, ptr %20, align 1
  %97 = sext i8 %96 to i32
  %98 = or i32 %97, %95
  %99 = trunc i32 %98 to i8
  store i8 %99, ptr %20, align 1
  %100 = load ptr, ptr %18, align 8
  %101 = getelementptr i8, ptr %100, i32 1
  store ptr %101, ptr %18, align 8
  %102 = load i64, ptr %23, align 8
  %103 = icmp ult i64 %102, 16
  br i1 %103, label %104, label %110

104:                                              ; preds = %89
  %105 = load i8, ptr %20, align 1
  %106 = load ptr, ptr %17, align 8
  %107 = load i64, ptr %23, align 8
  %108 = add i64 %107, 1
  store i64 %108, ptr %23, align 8
  %109 = getelementptr i8, ptr %106, i64 %107
  store i8 %105, ptr %109, align 1
  br label %110

110:                                              ; preds = %104, %89
  br label %38

111:                                              ; preds = %49, %44
  %112 = load i64, ptr %23, align 8
  %113 = icmp ne i64 %112, 16
  br i1 %113, label %114, label %120

114:                                              ; preds = %111
  %115 = load ptr, ptr %17, align 8
  %116 = load ptr, ptr %17, align 8
  %117 = call i64 @llvm.objectsize.i64.p0(ptr %116, i1 false, i1 true, i1 true)
  %118 = load i64, ptr %23, align 8
  %119 = call i32 (ptr, i64, i32, i64, ptr, ...) @__snprintf_chk(ptr noundef %115, i64 noundef 128, i32 noundef 2, i64 noundef %117, ptr noundef @.str.267, i64 noundef %118)
  br label %187

120:                                              ; preds = %111
  %121 = load ptr, ptr %16, align 8
  %122 = load ptr, ptr %11, align 8
  %123 = load i32, ptr %12, align 4
  %124 = call i32 @process_netbios_name(ptr noundef %121, ptr noundef %122, i32 noundef %123)
  store i32 %124, ptr %21, align 4
  %125 = load ptr, ptr %11, align 8
  %126 = call i64 @strlen(ptr noundef %125) #10
  %127 = load i32, ptr %12, align 4
  %128 = sext i32 %127 to i64
  %129 = icmp ult i64 %126, %128
  br i1 %129, label %130, label %133

130:                                              ; preds = %120
  %131 = load ptr, ptr %11, align 8
  %132 = call i64 @strlen(ptr noundef %131) #10
  br label %136

133:                                              ; preds = %120
  %134 = load i32, ptr %12, align 4
  %135 = sext i32 %134 to i64
  br label %136

136:                                              ; preds = %133, %130
  %137 = phi i64 [ %132, %130 ], [ %135, %133 ]
  %138 = load ptr, ptr %22, align 8
  %139 = getelementptr i8, ptr %138, i64 %137
  store ptr %139, ptr %22, align 8
  %140 = load ptr, ptr %22, align 8
  %141 = load i32, ptr %12, align 4
  %142 = sext i32 %141 to i64
  %143 = load ptr, ptr %22, align 8
  %144 = load ptr, ptr %11, align 8
  %145 = ptrtoint ptr %143 to i64
  %146 = ptrtoint ptr %144 to i64
  %147 = sub i64 %145, %146
  %148 = sub i64 %142, %147
  %149 = load ptr, ptr %22, align 8
  %150 = call i64 @llvm.objectsize.i64.p0(ptr %149, i1 false, i1 true, i1 true)
  %151 = load i32, ptr %21, align 4
  %152 = call i32 (ptr, i64, i32, i64, ptr, ...) @__snprintf_chk(ptr noundef %140, i64 noundef %148, i32 noundef 2, i64 noundef %150, ptr noundef @.str.268, i32 noundef %151)
  %153 = load i8, ptr %19, align 1
  %154 = sext i8 %153 to i32
  %155 = icmp eq i32 %154, 46
  br i1 %155, label %156, label %179

156:                                              ; preds = %136
  call void @llvm.lifetime.start.p0(i64 8, ptr %25) #8
  %157 = call ptr @wmem_packet_scope()
  %158 = load ptr, ptr %18, align 8
  %159 = load ptr, ptr %18, align 8
  %160 = call i64 @strlen(ptr noundef %159) #10
  %161 = trunc i64 %160 to i32
  %162 = call ptr @get_ascii_string(ptr noundef %157, ptr noundef %158, i32 noundef %161)
  store ptr %162, ptr %25, align 8
  call void @llvm.lifetime.start.p0(i64 4, ptr %26) #8
  %163 = load ptr, ptr %11, align 8
  %164 = load ptr, ptr %25, align 8
  %165 = load i32, ptr %12, align 4
  %166 = sext i32 %165 to i64
  %167 = call i64 @g_strlcat(ptr noundef %163, ptr noundef %164, i64 noundef %166)
  %168 = trunc i64 %167 to i32
  store i32 %168, ptr %26, align 4
  %169 = load i32, ptr %26, align 4
  %170 = load i32, ptr %12, align 4
  %171 = icmp sge i32 %169, %170
  br i1 %171, label %172, label %178

172:                                              ; preds = %156
  %173 = load ptr, ptr %11, align 8
  %174 = load i32, ptr %12, align 4
  %175 = sub i32 %174, 1
  %176 = sext i32 %175 to i64
  %177 = call ptr @ws_utf8_truncate(ptr noundef %173, i64 noundef %176)
  br label %178

178:                                              ; preds = %172, %156
  call void @llvm.lifetime.end.p0(i64 4, ptr %26) #8
  call void @llvm.lifetime.end.p0(i64 8, ptr %25) #8
  br label %179

179:                                              ; preds = %178, %136
  %180 = load ptr, ptr %13, align 8
  %181 = icmp ne ptr %180, null
  br i1 %181, label %182, label %185

182:                                              ; preds = %179
  %183 = load i32, ptr %21, align 4
  %184 = load ptr, ptr %13, align 8
  store i32 %183, ptr %184, align 4
  br label %185

185:                                              ; preds = %182, %179
  %186 = load i32, ptr %24, align 4
  store i32 %186, ptr %7, align 4
  store i32 1, ptr %27, align 4
  br label %207

187:                                              ; preds = %114, %88, %79, %58
  %188 = load ptr, ptr %13, align 8
  %189 = icmp ne ptr %188, null
  br i1 %189, label %190, label %192

190:                                              ; preds = %187
  %191 = load ptr, ptr %13, align 8
  store i32 -1, ptr %191, align 4
  br label %192

192:                                              ; preds = %190, %187
  %193 = load ptr, ptr %22, align 8
  %194 = load i32, ptr %12, align 4
  %195 = sext i32 %194 to i64
  %196 = load ptr, ptr %22, align 8
  %197 = load ptr, ptr %11, align 8
  %198 = ptrtoint ptr %196 to i64
  %199 = ptrtoint ptr %197 to i64
  %200 = sub i64 %198, %199
  %201 = sub i64 %195, %200
  %202 = load ptr, ptr %22, align 8
  %203 = call i64 @llvm.objectsize.i64.p0(ptr %202, i1 false, i1 true, i1 true)
  %204 = load ptr, ptr %16, align 8
  %205 = call i32 (ptr, i64, i32, i64, ptr, ...) @__snprintf_chk(ptr noundef %193, i64 noundef %201, i32 noundef 2, i64 noundef %203, ptr noundef @.str.269, ptr noundef %204)
  %206 = load i32, ptr %24, align 4
  store i32 %206, ptr %7, align 4
  store i32 1, ptr %27, align 4
  br label %207

207:                                              ; preds = %192, %185
  call void @llvm.lifetime.end.p0(i64 4, ptr %24) #8
  call void @llvm.lifetime.end.p0(i64 8, ptr %23) #8
  call void @llvm.lifetime.end.p0(i64 8, ptr %22) #8
  call void @llvm.lifetime.end.p0(i64 4, ptr %21) #8
  call void @llvm.lifetime.end.p0(i64 1, ptr %20) #8
  call void @llvm.lifetime.end.p0(i64 1, ptr %19) #8
  call void @llvm.lifetime.end.p0(i64 8, ptr %18) #8
  call void @llvm.lifetime.end.p0(i64 8, ptr %17) #8
  call void @llvm.lifetime.end.p0(i64 8, ptr %16) #8
  call void @llvm.lifetime.end.p0(i64 8, ptr %15) #8
  call void @llvm.lifetime.end.p0(i64 4, ptr %14) #8
  %208 = load i32, ptr %7, align 4
  ret i32 %208
}