; Function Attrs: null_pointer_is_valid sspstrong uwtable
define internal fastcc i32 @get_nbns_name(ptr noundef %0, i32 noundef %1, i32 noundef %2, ptr noundef %3, i32 noundef %4, ptr noundef writeonly captures(address_is_null) %5) unnamed_addr #0 {
  %7 = alloca i32, align 4
  %8 = alloca ptr, align 8
  call void @llvm.lifetime.start.p0(i64 4, ptr nonnull %7) #9
  call void @llvm.lifetime.start.p0(i64 8, ptr nonnull %8) #9
  %9 = tail call ptr @wmem_packet_scope()
  %10 = tail call noalias dereferenceable_or_null(128) ptr @wmem_alloc(ptr noundef %9, i64 noundef 128) #10
  %11 = call i32 @get_dns_name(ptr noundef %0, i32 noundef %1, i32 noundef 0, i32 noundef %2, ptr noundef nonnull %8, ptr noundef nonnull %7)
  %12 = load ptr, ptr %8, align 8
  br label %.outer

.outer:                                           ; preds = %25, %6
  %.080.ph = phi i64 [ %28, %25 ], [ 0, %6 ]
  %.079.ph = phi ptr [ %24, %25 ], [ %12, %6 ]
  %13 = icmp samesign ult i64 %.080.ph, 16
  br label %14

14:                                               ; preds = %.outer, %23
  %.079 = phi ptr [ %24, %23 ], [ %.079.ph, %.outer ]
  %15 = load i8, ptr %.079, align 1
  switch i8 %15, label %16 [
    i8 46, label %30
    i8 0, label %30
  ]

16:                                               ; preds = %14
  %17 = add i8 %15, -91
  %or.cond = icmp ult i8 %17, -26
  br i1 %or.cond, label %.loopexit, label %18

18:                                               ; preds = %16
  %19 = getelementptr i8, ptr %.079, i64 1
  %20 = load i8, ptr %19, align 1
  switch i8 %20, label %21 [
    i8 46, label %.loopexit
    i8 0, label %.loopexit
  ]

21:                                               ; preds = %18
  %22 = add i8 %20, -91
  %or.cond8 = icmp ult i8 %22, -26
  br i1 %or.cond8, label %.loopexit, label %23

23:                                               ; preds = %21
  %24 = getelementptr i8, ptr %.079, i64 2
  br i1 %13, label %25, label %14

25:                                               ; preds = %23
  %narrow.le = shl i8 %15, 4
  %26 = add i8 %narrow.le, -16
  %narrow87 = add nsw i8 %20, -65
  %27 = or i8 %narrow87, %26
  %28 = add nuw nsw i64 %.080.ph, 1
  %29 = getelementptr i8, ptr %10, i64 %.080.ph
  store i8 %27, ptr %29, align 1
  br label %.outer

30:                                               ; preds = %14, %14
  %.not = icmp eq i64 %.080.ph, 16
  br i1 %.not, label %33, label %31

31:                                               ; preds = %30
  %32 = call i32 (ptr, i64, i32, i64, ptr, ...) @__snprintf_chk(ptr noundef %10, i64 noundef 128, i32 noundef 2, i64 noundef 128, ptr noundef nonnull @.str.267, i64 noundef %.080.ph)
  br label %.loopexit

33:                                               ; preds = %30
  %34 = icmp eq i8 %15, 46
  %35 = call i32 @process_netbios_name(ptr noundef %10, ptr noundef %3, i32 noundef %4)
  %36 = call i64 @strlen(ptr noundef %3) #11
  %37 = sext i32 %4 to i64
  %. = call i64 @llvm.umin.i64(i64 %36, i64 %37)
  %38 = getelementptr i8, ptr %3, i64 %.
  %39 = sub i64 %37, %.
  %40 = call i32 (ptr, i64, i32, i64, ptr, ...) @__snprintf_chk(ptr noundef %38, i64 noundef %39, i32 noundef 2, i64 noundef -1, ptr noundef nonnull @.str.268, i32 noundef %35)
  br i1 %34, label %41, label %52

41:                                               ; preds = %33
  %42 = call ptr @wmem_packet_scope()
  %43 = call i64 @strlen(ptr noundef %.079) #11
  %44 = trunc i64 %43 to i32
  %45 = call ptr @get_ascii_string(ptr noundef %42, ptr noundef %.079, i32 noundef %44)
  %46 = call i64 @g_strlcat(ptr noundef %3, ptr noundef %45, i64 noundef %37)
  %47 = trunc i64 %46 to i32
  %.not88 = icmp sgt i32 %4, %47
  br i1 %.not88, label %52, label %48

48:                                               ; preds = %41
  %49 = add i32 %4, -1
  %50 = sext i32 %49 to i64
  %51 = call ptr @ws_utf8_truncate(ptr noundef %3, i64 noundef %50)
  br label %52

52:                                               ; preds = %41, %48, %33
  %.not89 = icmp eq ptr %5, null
  br i1 %.not89, label %58, label %53

53:                                               ; preds = %52
  store i32 %35, ptr %5, align 4
  br label %58

.loopexit:                                        ; preds = %21, %18, %18, %16, %31
  %.078 = phi ptr [ %10, %31 ], [ @.str.266, %21 ], [ @.str.265, %18 ], [ @.str.265, %18 ], [ @.str.264, %16 ]
  %.not90 = icmp eq ptr %5, null
  br i1 %.not90, label %55, label %54

54:                                               ; preds = %.loopexit
  store i32 -1, ptr %5, align 4
  br label %55

55:                                               ; preds = %54, %.loopexit
  %56 = sext i32 %4 to i64
  %57 = call i32 (ptr, i64, i32, i64, ptr, ...) @__snprintf_chk(ptr noundef %3, i64 noundef %56, i32 noundef 2, i64 noundef -1, ptr noundef nonnull @.str.269, ptr noundef %.078)
  br label %58

58:                                               ; preds = %52, %53, %55
  call void @llvm.lifetime.end.p0(i64 8, ptr nonnull %8) #9
  call void @llvm.lifetime.end.p0(i64 4, ptr nonnull %7) #9
  ret i32 %11
}